; Function Attrs: mustprogress nofree norecurse nosync nounwind willreturn memory(read, inaccessiblemem: none) uwtable
define dso_local noundef i32 @_ZNK4llvm10UndefValue14getNumElementsEv(ptr nocapture noundef nonnull readonly align 8 dereferenceable(24) %0) local_unnamed_addr #3 align 2 {
  %2 = getelementptr inbounds nuw i8, ptr %0, i64 8
  %3 = load ptr, ptr %2, align 8
  %4 = getelementptr inbounds nuw i8, ptr %3, i64 8
  %5 = load i32, ptr %4, align 8
  %6 = and i32 %5, 255
  %7 = icmp ne i32 %6, 16
  %.not12 = icmp eq ptr %3, null
  %.not = or i1 %.not12, %7
  br i1 %.not, label %12, label %8

8:                                                ; preds = %1
  %9 = getelementptr inbounds nuw i8, ptr %3, i64 32
  %10 = load i64, ptr %9, align 8
  %11 = trunc i64 %10 to i32
  br label %20

12:                                               ; preds = %1
  %13 = add nsw i32 %6, -19
  %spec.select.i.i.i.i.i.i.i.i = icmp ult i32 %13, -2
  %.not10 = or i1 %.not12, %spec.select.i.i.i.i.i.i.i.i
  br i1 %.not10, label %17, label %14

14:                                               ; preds = %12
  %15 = getelementptr inbounds nuw i8, ptr %3, i64 32
  %16 = load i32, ptr %15, align 8
  br label %20

17:                                               ; preds = %12
  %18 = getelementptr inbounds nuw i8, ptr %3, i64 12
  %19 = load i32, ptr %18, align 4
  br label %20

20:                                               ; preds = %17, %14, %8
  %.0 = phi i32 [ %11, %8 ], [ %16, %14 ], [ %19, %17 ]
  ret i32 %.0
}